; Function Attrs: mustprogress nounwind uwtable
define void @cvReleaseCapture(ptr noundef %0) local_unnamed_addr #5 {
  %.not = icmp eq ptr %0, null
  br i1 %.not, label %8, label %2

2:                                                ; preds = %1
  %3 = load ptr, ptr %0, align 8, !tbaa !50
  %.not5 = icmp eq ptr %3, null
  br i1 %.not5, label %8, label %4

4:                                                ; preds = %2
  %5 = load ptr, ptr %3, align 8, !tbaa !30
  %6 = getelementptr inbounds nuw i8, ptr %5, i64 8
  %7 = load ptr, ptr %6, align 8
  tail call void %7(ptr noundef nonnull align 8 dereferenceable(8) %3) #10
  store ptr null, ptr %0, align 8, !tbaa !50
  br label %8

8:                                                ; preds = %4, %2, %1
  ret void
}